; ModuleID = '38/1332.c'
source_filename = "38/1332.c"
target datalayout = "e-m:e-p270:32:32-p271:32:32-p272:64:64-i64:64-f80:128-n8:16:32:64-S128"
target triple = "x86_64-pc-linux-gnu"

%struct.anon = type { i32, [100 x double], double, double, double, double }

@.str = private unnamed_addr constant [4 x i8] c"%d\0A\00", align 1
@.str.1 = private unnamed_addr constant [4 x i8] c"%lf\00", align 1
@.str.2 = private unnamed_addr constant [7 x i8] c"%.5lf\0A\00", align 1

; Function Attrs: noinline nounwind uwtable
define dso_local void @main() #0 {
  %1 = alloca i32, align 4
  %2 = alloca i32, align 4
  %3 = alloca i32, align 4
  %4 = alloca [100 x %struct.anon], align 16
  %5 = call i32 (i8*, ...) @__isoc99_scanf(i8* getelementptr inbounds ([4 x i8], [4 x i8]* @.str, i64 0, i64 0), i32* %3)
  store i32 0, i32* %1, align 4
  br label %6

6:                                                ; preds = %140, %0
  %7 = load i32, i32* %1, align 4
  %8 = load i32, i32* %3, align 4
  %9 = icmp slt i32 %7, %8
  br i1 %9, label %10, label %143

10:                                               ; preds = %6
  %11 = load i32, i32* %1, align 4
  %12 = sext i32 %11 to i64
  %13 = getelementptr inbounds [100 x %struct.anon], [100 x %struct.anon]* %4, i64 0, i64 %12
  %14 = getelementptr inbounds %struct.anon, %struct.anon* %13, i32 0, i32 0
  %15 = call i32 (i8*, ...) @__isoc99_scanf(i8* getelementptr inbounds ([4 x i8], [4 x i8]* @.str, i64 0, i64 0), i32* %14)
  %16 = load i32, i32* %1, align 4
  %17 = sext i32 %16 to i64
  %18 = getelementptr inbounds [100 x %struct.anon], [100 x %struct.anon]* %4, i64 0, i64 %17
  %19 = getelementptr inbounds %struct.anon, %struct.anon* %18, i32 0, i32 2
  store double 0.000000e+00, double* %19, align 8
  store i32 0, i32* %2, align 4
  br label %20

20:                                               ; preds = %51, %10
  %21 = load i32, i32* %2, align 4
  %22 = load i32, i32* %1, align 4
  %23 = sext i32 %22 to i64
  %24 = getelementptr inbounds [100 x %struct.anon], [100 x %struct.anon]* %4, i64 0, i64 %23
  %25 = getelementptr inbounds %struct.anon, %struct.anon* %24, i32 0, i32 0
  %26 = load i32, i32* %25, align 8
  %27 = icmp slt i32 %21, %26
  br i1 %27, label %28, label %54

28:                                               ; preds = %20
  %29 = load i32, i32* %1, align 4
  %30 = sext i32 %29 to i64
  %31 = getelementptr inbounds [100 x %struct.anon], [100 x %struct.anon]* %4, i64 0, i64 %30
  %32 = getelementptr inbounds %struct.anon, %struct.anon* %31, i32 0, i32 1
  %33 = load i32, i32* %2, align 4
  %34 = sext i32 %33 to i64
  %35 = getelementptr inbounds [100 x double], [100 x double]* %32, i64 0, i64 %34
  %36 = call i32 (i8*, ...) @__isoc99_scanf(i8* getelementptr inbounds ([4 x i8], [4 x i8]* @.str.1, i64 0, i64 0), double* %35)
  %37 = load i32, i32* %1, align 4
  %38 = sext i32 %37 to i64
  %39 = getelementptr inbounds [100 x %struct.anon], [100 x %struct.anon]* %4, i64 0, i64 %38
  %40 = getelementptr inbounds %struct.anon, %struct.anon* %39, i32 0, i32 1
  %41 = load i32, i32* %2, align 4
  %42 = sext i32 %41 to i64
  %43 = getelementptr inbounds [100 x double], [100 x double]* %40, i64 0, i64 %42
  %44 = load double, double* %43, align 8
  %45 = load i32, i32* %1, align 4
  %46 = sext i32 %45 to i64
  %47 = getelementptr inbounds [100 x %struct.anon], [100 x %struct.anon]* %4, i64 0, i64 %46
  %48 = getelementptr inbounds %struct.anon, %struct.anon* %47, i32 0, i32 2
  %49 = load double, double* %48, align 8
  %50 = fadd double %49, %44
  store double %50, double* %48, align 8
  br label %51

51:                                               ; preds = %28
  %52 = load i32, i32* %2, align 4
  %53 = add nsw i32 %52, 1
  store i32 %53, i32* %2, align 4
  br label %20

54:                                               ; preds = %20
  %55 = load i32, i32* %1, align 4
  %56 = sext i32 %55 to i64
  %57 = getelementptr inbounds [100 x %struct.anon], [100 x %struct.anon]* %4, i64 0, i64 %56
  %58 = getelementptr inbounds %struct.anon, %struct.anon* %57, i32 0, i32 2
  %59 = load double, double* %58, align 8
  %60 = load i32, i32* %1, align 4
  %61 = sext i32 %60 to i64
  %62 = getelementptr inbounds [100 x %struct.anon], [100 x %struct.anon]* %4, i64 0, i64 %61
  %63 = getelementptr inbounds %struct.anon, %struct.anon* %62, i32 0, i32 0
  %64 = load i32, i32* %63, align 8
  %65 = sitofp i32 %64 to double
  %66 = fdiv double %59, %65
  %67 = load i32, i32* %1, align 4
  %68 = sext i32 %67 to i64
  %69 = getelementptr inbounds [100 x %struct.anon], [100 x %struct.anon]* %4, i64 0, i64 %68
  %70 = getelementptr inbounds %struct.anon, %struct.anon* %69, i32 0, i32 3
  store double %66, double* %70, align 8
  %71 = load i32, i32* %1, align 4
  %72 = sext i32 %71 to i64
  %73 = getelementptr inbounds [100 x %struct.anon], [100 x %struct.anon]* %4, i64 0, i64 %72
  %74 = getelementptr inbounds %struct.anon, %struct.anon* %73, i32 0, i32 4
  store double 0.000000e+00, double* %74, align 8
  store i32 0, i32* %2, align 4
  br label %75

75:                                               ; preds = %119, %54
  %76 = load i32, i32* %2, align 4
  %77 = load i32, i32* %1, align 4
  %78 = sext i32 %77 to i64
  %79 = getelementptr inbounds [100 x %struct.anon], [100 x %struct.anon]* %4, i64 0, i64 %78
  %80 = getelementptr inbounds %struct.anon, %struct.anon* %79, i32 0, i32 0
  %81 = load i32, i32* %80, align 8
  %82 = icmp slt i32 %76, %81
  br i1 %82, label %83, label %122

83:                                               ; preds = %75
  %84 = load i32, i32* %1, align 4
  %85 = sext i32 %84 to i64
  %86 = getelementptr inbounds [100 x %struct.anon], [100 x %struct.anon]* %4, i64 0, i64 %85
  %87 = getelementptr inbounds %struct.anon, %struct.anon* %86, i32 0, i32 1
  %88 = load i32, i32* %2, align 4
  %89 = sext i32 %88 to i64
  %90 = getelementptr inbounds [100 x double], [100 x double]* %87, i64 0, i64 %89
  %91 = load double, double* %90, align 8
  %92 = load i32, i32* %1, align 4
  %93 = sext i32 %92 to i64
  %94 = getelementptr inbounds [100 x %struct.anon], [100 x %struct.anon]* %4, i64 0, i64 %93
  %95 = getelementptr inbounds %struct.anon, %struct.anon* %94, i32 0, i32 3
  %96 = load double, double* %95, align 8
  %97 = fsub double %91, %96
  %98 = load i32, i32* %1, align 4
  %99 = sext i32 %98 to i64
  %100 = getelementptr inbounds [100 x %struct.anon], [100 x %struct.anon]* %4, i64 0, i64 %99
  %101 = getelementptr inbounds %struct.anon, %struct.anon* %100, i32 0, i32 1
  %102 = load i32, i32* %2, align 4
  %103 = sext i32 %102 to i64
  %104 = getelementptr inbounds [100 x double], [100 x double]* %101, i64 0, i64 %103
  %105 = load double, double* %104, align 8
  %106 = load i32, i32* %1, align 4
  %107 = sext i32 %106 to i64
  %108 = getelementptr inbounds [100 x %struct.anon], [100 x %struct.anon]* %4, i64 0, i64 %107
  %109 = getelementptr inbounds %struct.anon, %struct.anon* %108, i32 0, i32 3
  %110 = load double, double* %109, align 8
  %111 = fsub double %105, %110
  %112 = fmul double %97, %111
  %113 = load i32, i32* %1, align 4
  %114 = sext i32 %113 to i64
  %115 = getelementptr inbounds [100 x %struct.anon], [100 x %struct.anon]* %4, i64 0, i64 %114
  %116 = getelementptr inbounds %struct.anon, %struct.anon* %115, i32 0, i32 4
  %117 = load double, double* %116, align 8
  %118 = fadd double %117, %112
  store double %118, double* %116, align 8
  br label %119

119:                                              ; preds = %83
  %120 = load i32, i32* %2, align 4
  %121 = add nsw i32 %120, 1
  store i32 %121, i32* %2, align 4
  br label %75

122:                                              ; preds = %75
  %123 = load i32, i32* %1, align 4
  %124 = sext i32 %123 to i64
  %125 = getelementptr inbounds [100 x %struct.anon], [100 x %struct.anon]* %4, i64 0, i64 %124
  %126 = getelementptr inbounds %struct.anon, %struct.anon* %125, i32 0, i32 4
  %127 = load double, double* %126, align 8
  %128 = load i32, i32* %1, align 4
  %129 = sext i32 %128 to i64
  %130 = getelementptr inbounds [100 x %struct.anon], [100 x %struct.anon]* %4, i64 0, i64 %129
  %131 = getelementptr inbounds %struct.anon, %struct.anon* %130, i32 0, i32 0
  %132 = load i32, i32* %131, align 8
  %133 = sitofp i32 %132 to double
  %134 = fdiv double %127, %133
  %135 = call double @sqrt(double %134) #3
  %136 = load i32, i32* %1, align 4
  %137 = sext i32 %136 to i64
  %138 = getelementptr inbounds [100 x %struct.anon], [100 x %struct.anon]* %4, i64 0, i64 %137
  %139 = getelementptr inbounds %struct.anon, %struct.anon* %138, i32 0, i32 5
  store double %135, double* %139, align 8
  br label %140

140:                                              ; preds = %122
  %141 = load i32, i32* %1, align 4
  %142 = add nsw i32 %141, 1
  store i32 %142, i32* %1, align 4
  br label %6

143:                                              ; preds = %6
  store i32 0, i32* %1, align 4
  br label %144

144:                                              ; preds = %155, %143
  %145 = load i32, i32* %1, align 4
  %146 = load i32, i32* %3, align 4
  %147 = icmp slt i32 %145, %146
  br i1 %147, label %148, label %158

148:                                              ; preds = %144
  %149 = load i32, i32* %1, align 4
  %150 = sext i32 %149 to i64
  %151 = getelementptr inbounds [100 x %struct.anon], [100 x %struct.anon]* %4, i64 0, i64 %150
  %152 = getelementptr inbounds %struct.anon, %struct.anon* %151, i32 0, i32 5
  %153 = load double, double* %152, align 8
  %154 = call i32 (i8*, ...) @printf(i8* getelementptr inbounds ([7 x i8], [7 x i8]* @.str.2, i64 0, i64 0), double %153)
  br label %155

155:                                              ; preds = %148
  %156 = load i32, i32* %1, align 4
  %157 = add nsw i32 %156, 1
  store i32 %157, i32* %1, align 4
  br label %144

158:                                              ; preds = %144
  ret void
}

declare dso_local i32 @__isoc99_scanf(i8*, ...) #1

; Function Attrs: nounwind
declare dso_local double @sqrt(double) #2

declare dso_local i32 @printf(i8*, ...) #1


!llvm.module.flags = !{!0}
!llvm.ident = !{!1}

!0 = !{i32 1, !"wchar_size", i32 4}
!1 = !{!"clang version 10.0.0-4ubuntu1 "}
